target datalayout = "e-m:e-p270:32:32-p271:32:32-p272:64:64-i64:64-i128:128-f80:128-n8:16:32:64-S128"
target triple = "x86_64-pc-linux-gnu"

@.str.5 = private unnamed_addr constant [6 x i8] c"FILE*\00", align 1
@.str.16 = private unnamed_addr constant [29 x i8] c"attempt to use a closed file\00", align 1
@.str.18 = private unnamed_addr constant [7 x i8] c"%s: %s\00", align 1

; Function Attrs: nounwind uwtable
define internal ptr @tofile(ptr noundef %0) #0 {
  %2 = alloca ptr, align 8
  %3 = alloca ptr, align 8
  store ptr %0, ptr %2, align 8, !tbaa !4
  call void @llvm.lifetime.start.p0(i64 8, ptr %3) #6
  %4 = load ptr, ptr %2, align 8, !tbaa !4
  %5 = call ptr @luaL_checkudata(ptr noundef %4, i32 noundef 1, ptr noundef @.str.5)
  store ptr %5, ptr %3, align 8, !tbaa !12
  %6 = load ptr, ptr %3, align 8, !tbaa !12
  %7 = load ptr, ptr %6, align 8, !tbaa !9
  %8 = icmp eq ptr %7, null
  br i1 %8, label %9, label %12

9:                                                ; preds = %1
  %10 = load ptr, ptr %2, align 8, !tbaa !4
  %11 = call i32 (ptr, ptr, ...) @luaL_error(ptr noundef %10, ptr noundef @.str.16)
  br label %12

12:                                               ; preds = %9, %1
  %13 = load ptr, ptr %3, align 8, !tbaa !12
  %14 = load ptr, ptr %13, align 8, !tbaa !9
  call void @llvm.lifetime.end.p0(i64 8, ptr %3) #6
  ret ptr %14
}

; Function Attrs: nounwind uwtable
define internal void @fileerror(ptr noundef %0, i32 noundef %1, ptr noundef %2) #0 {
  %4 = alloca ptr, align 8
  %5 = alloca i32, align 4
  %6 = alloca ptr, align 8
  store ptr %0, ptr %4, align 8, !tbaa !4
  store i32 %1, ptr %5, align 4, !tbaa !14
  store ptr %2, ptr %6, align 8, !tbaa !16
  %7 = load ptr, ptr %4, align 8, !tbaa !4
  %8 = load ptr, ptr %6, align 8, !tbaa !16
  %9 = call ptr @__errno_location() #7
  %10 = load i32, ptr %9, align 4, !tbaa !14
  %11 = call ptr @strerror(i32 noundef %10) #6
  %12 = call ptr (ptr, ptr, ...) @lua_pushfstring(ptr noundef %7, ptr noundef @.str.18, ptr noundef %8, ptr noundef %11)
  %13 = load ptr, ptr %4, align 8, !tbaa !4
  %14 = load i32, ptr %5, align 4, !tbaa !14
  %15 = load ptr, ptr %4, align 8, !tbaa !4
  %16 = call ptr @lua_tolstring(ptr noundef %15, i32 noundef -1, ptr noundef null)
  %17 = call i32 @luaL_argerror(ptr noundef %13, i32 noundef %14, ptr noundef %16)
  ret void
}

; Function Attrs: nounwind uwtable
define internal ptr @newfile(ptr noundef %0) #0 {
  %2 = alloca ptr, align 8
  %3 = alloca ptr, align 8
  store ptr %0, ptr %2, align 8, !tbaa !4
  call void @llvm.lifetime.start.p0(i64 8, ptr %3) #6
  %4 = load ptr, ptr %2, align 8, !tbaa !4
  %5 = call ptr @lua_newuserdata(ptr noundef %4, i64 noundef 8)
  store ptr %5, ptr %3, align 8, !tbaa !12
  %6 = load ptr, ptr %3, align 8, !tbaa !12
  store ptr null, ptr %6, align 8, !tbaa !9
  %7 = load ptr, ptr %2, align 8, !tbaa !4
  call void @lua_getfield(ptr noundef %7, i32 noundef -10000, ptr noundef @.str.5)
  %8 = load ptr, ptr %2, align 8, !tbaa !4
  %9 = call i32 @lua_setmetatable(ptr noundef %8, i32 noundef -2)
  %10 = load ptr, ptr %3, align 8, !tbaa !12
  call void @llvm.lifetime.end.p0(i64 8, ptr %3) #6
  ret ptr %10
}

; Function Attrs: nounwind uwtable
define internal i32 @g_iofile(ptr noundef %0, i32 noundef %1, ptr noundef %2) #0 {
  %4 = alloca ptr, align 8
  %5 = alloca i32, align 4
  %6 = alloca ptr, align 8
  %7 = alloca ptr, align 8
  %8 = alloca ptr, align 8
  store ptr %0, ptr %4, align 8, !tbaa !4
  store i32 %1, ptr %5, align 4, !tbaa !14
  store ptr %2, ptr %6, align 8, !tbaa !16
  %9 = load ptr, ptr %4, align 8, !tbaa !4
  %10 = call i32 @lua_type(ptr noundef %9, i32 noundef 1)
  %11 = icmp sle i32 %10, 0
  br i1 %11, label %38, label %12

12:                                               ; preds = %3
  call void @llvm.lifetime.start.p0(i64 8, ptr %7) #6
  %13 = load ptr, ptr %4, align 8, !tbaa !4
  %14 = call ptr @lua_tolstring(ptr noundef %13, i32 noundef 1, ptr noundef null)
  store ptr %14, ptr %7, align 8, !tbaa !16
  %15 = load ptr, ptr %7, align 8, !tbaa !16
  %16 = icmp ne ptr %15, null
  br i1 %16, label %17, label %31

17:                                               ; preds = %12
  call void @llvm.lifetime.start.p0(i64 8, ptr %8) #6
  %18 = load ptr, ptr %4, align 8, !tbaa !4
  %19 = call ptr @newfile(ptr noundef %18)
  store ptr %19, ptr %8, align 8, !tbaa !12
  %20 = load ptr, ptr %7, align 8, !tbaa !16
  %21 = load ptr, ptr %6, align 8, !tbaa !16
  %22 = call noalias ptr @fopen(ptr noundef %20, ptr noundef %21)
  %23 = load ptr, ptr %8, align 8, !tbaa !12
  store ptr %22, ptr %23, align 8, !tbaa !9
  %24 = load ptr, ptr %8, align 8, !tbaa !12
  %25 = load ptr, ptr %24, align 8, !tbaa !9
  %26 = icmp eq ptr %25, null
  br i1 %26, label %27, label %30

27:                                               ; preds = %17
  %28 = load ptr, ptr %4, align 8, !tbaa !4
  %29 = load ptr, ptr %7, align 8, !tbaa !16
  call void @fileerror(ptr noundef %28, i32 noundef 1, ptr noundef %29)
  br label %30

30:                                               ; preds = %27, %17
  call void @llvm.lifetime.end.p0(i64 8, ptr %8) #6
  br label %35

31:                                               ; preds = %12
  %32 = load ptr, ptr %4, align 8, !tbaa !4
  %33 = call ptr @tofile(ptr noundef %32)
  %34 = load ptr, ptr %4, align 8, !tbaa !4
  call void @lua_pushvalue(ptr noundef %34, i32 noundef 1)
  br label %35

35:                                               ; preds = %31, %30
  %36 = load ptr, ptr %4, align 8, !tbaa !4
  %37 = load i32, ptr %5, align 4, !tbaa !14
  call void @lua_rawseti(ptr noundef %36, i32 noundef -10001, i32 noundef %37)
  call void @llvm.lifetime.end.p0(i64 8, ptr %7) #6
  br label %38

38:                                               ; preds = %35, %3
  %39 = load ptr, ptr %4, align 8, !tbaa !4
  %40 = load i32, ptr %5, align 4, !tbaa !14
  call void @lua_rawgeti(ptr noundef %39, i32 noundef -10001, i32 noundef %40)
  ret i32 1
}