; Function Attrs: nounwind uwtable
define internal fastcc void @g_iofile(ptr noundef %0, i32 noundef range(i32 1, 3) %1, ptr noundef readonly captures(none) %2) unnamed_addr #0 {
  %4 = tail call i32 @lua_type(ptr noundef %0, i32 noundef 1) #9
  %5 = icmp slt i32 %4, 1
  br i1 %5, label %27, label %6

6:                                                ; preds = %3
  %7 = tail call ptr @lua_tolstring(ptr noundef %0, i32 noundef 1, ptr noundef null) #9
  %.not = icmp eq ptr %7, null
  br i1 %.not, label %20, label %8

8:                                                ; preds = %6
  %9 = tail call ptr @lua_newuserdata(ptr noundef %0, i64 noundef 8) #9
  store ptr null, ptr %9, align 8, !tbaa !4
  tail call void @lua_getfield(ptr noundef %0, i32 noundef -10000, ptr noundef nonnull @.str.5) #9
  %10 = tail call i32 @lua_setmetatable(ptr noundef %0, i32 noundef -2) #9
  %11 = tail call noalias ptr @fopen(ptr noundef nonnull %7, ptr noundef %2)
  store ptr %11, ptr %9, align 8, !tbaa !4
  %12 = icmp eq ptr %11, null
  br i1 %12, label %13, label %26

13:                                               ; preds = %8
  %14 = tail call ptr @__errno_location() #10
  %15 = load i32, ptr %14, align 4, !tbaa !9
  %16 = tail call ptr @strerror(i32 noundef %15) #9
  %17 = tail call ptr (ptr, ptr, ...) @lua_pushfstring(ptr noundef %0, ptr noundef nonnull @.str.18, ptr noundef nonnull %7, ptr noundef %16) #9
  %18 = tail call ptr @lua_tolstring(ptr noundef %0, i32 noundef -1, ptr noundef null) #9
  %19 = tail call i32 @luaL_argerror(ptr noundef %0, i32 noundef 1, ptr noundef %18) #9
  br label %26

20:                                               ; preds = %6
  %21 = tail call ptr @luaL_checkudata(ptr noundef %0, i32 noundef 1, ptr noundef nonnull @.str.5) #9
  %22 = load ptr, ptr %21, align 8, !tbaa !4
  %23 = icmp eq ptr %22, null
  br i1 %23, label %24, label %tofile.exit

24:                                               ; preds = %20
  %25 = tail call i32 (ptr, ptr, ...) @luaL_error(ptr noundef %0, ptr noundef nonnull @.str.16) #9
  br label %tofile.exit

tofile.exit:                                      ; preds = %20, %24
  tail call void @lua_pushvalue(ptr noundef %0, i32 noundef 1) #9
  br label %26

26:                                               ; preds = %8, %13, %tofile.exit
  tail call void @lua_rawseti(ptr noundef %0, i32 noundef -10001, i32 noundef %1) #9
  br label %27

27:                                               ; preds = %26, %3
  tail call void @lua_rawgeti(ptr noundef %0, i32 noundef -10001, i32 noundef %1) #9
  ret void
}